; Function Attrs: mustprogress nofree norecurse nosync nounwind willreturn memory(argmem: read) uwtable
define hidden noundef zeroext i1 @_ZN2qe21simplify_rewriter_cfg9pre_visitEP4expr(ptr nocapture noundef nonnull readnone align 8 dereferenceable(8) %this, ptr nocapture noundef readonly %e) local_unnamed_addr #13 align 2 {
entry:
  %m_kind.i.i = getelementptr inbounds i8, ptr %e, i64 4
  %bf.load.i.i = load i32, ptr %m_kind.i.i, align 4
  %bf.clear.i.i = and i32 %bf.load.i.i, 65535
  %cmp.i = icmp eq i32 %bf.clear.i.i, 2
  br i1 %cmp.i, label %if.end, label %return

if.end:                                           ; preds = %entry
  %m_num_patterns.i = getelementptr inbounds i8, ptr %e, i64 72
  %0 = load i32, ptr %m_num_patterns.i, align 8
  %cmp = icmp eq i32 %0, 0
  br i1 %cmp, label %land.rhs, label %return

land.rhs:                                         ; preds = %if.end
  %m_num_no_patterns.i = getelementptr inbounds i8, ptr %e, i64 76
  %1 = load i32, ptr %m_num_no_patterns.i, align 4
  %cmp5 = icmp eq i32 %1, 0
  br label %return

return:                                           ; preds = %if.end, %land.rhs, %entry
  %retval.0 = phi i1 [ true, %entry ], [ false, %if.end ], [ %cmp5, %land.rhs ]
  ret i1 %retval.0
}